target datalayout = "e-m:e-p270:32:32-p271:32:32-p272:64:64-i64:64-i128:128-f80:128-n8:16:32:64-S128"
target triple = "x86_64-pc-linux-gnu"

%struct.mpd_t = type { i8, i64, i64, i64, i64, ptr }

; Function Attrs: alwaysinline nounwind uwtable
define hidden zeroext i8 @mpd_sign(ptr noundef %0) #1 {
  %2 = alloca ptr, align 8
  store ptr %0, ptr %2, align 8, !tbaa !7
  %3 = load ptr, ptr %2, align 8, !tbaa !7
  %4 = getelementptr inbounds nuw %struct.mpd_t, ptr %3, i32 0, i32 0
  %5 = load i8, ptr %4, align 8, !tbaa !25
  %6 = zext i8 %5 to i32
  %7 = and i32 %6, 1
  %8 = trunc i32 %7 to i8
  ret i8 %8
}

; Function Attrs: alwaysinline nounwind uwtable
define hidden i32 @mpd_isspecial(ptr noundef %0) #1 {
  %2 = alloca ptr, align 8
  store ptr %0, ptr %2, align 8, !tbaa !7
  %3 = load ptr, ptr %2, align 8, !tbaa !7
  %4 = getelementptr inbounds nuw %struct.mpd_t, ptr %3, i32 0, i32 0
  %5 = load i8, ptr %4, align 8, !tbaa !25
  %6 = zext i8 %5 to i32
  %7 = and i32 %6, 14
  ret i32 %7
}

; Function Attrs: nounwind uwtable
define hidden void @mpd_qadd(ptr noundef %0, ptr noundef %1, ptr noundef %2, ptr noundef %3, ptr noundef %4) #0 {
  %6 = alloca ptr, align 8
  %7 = alloca ptr, align 8
  %8 = alloca ptr, align 8
  %9 = alloca ptr, align 8
  %10 = alloca ptr, align 8
  store ptr %0, ptr %6, align 8, !tbaa !7
  store ptr %1, ptr %7, align 8, !tbaa !7
  store ptr %2, ptr %8, align 8, !tbaa !7
  store ptr %3, ptr %9, align 8, !tbaa !14
  store ptr %4, ptr %10, align 8, !tbaa !29
  %11 = load ptr, ptr %7, align 8, !tbaa !7
  %12 = call i32 @mpd_isspecial(ptr noundef %11)
  %13 = icmp ne i32 %12, 0
  br i1 %13, label %18, label %14

14:                                               ; preds = %5
  %15 = load ptr, ptr %8, align 8, !tbaa !7
  %16 = call i32 @mpd_isspecial(ptr noundef %15)
  %17 = icmp ne i32 %16, 0
  br i1 %17, label %18, label %34

18:                                               ; preds = %14, %5
  %19 = load ptr, ptr %6, align 8, !tbaa !7
  %20 = load ptr, ptr %7, align 8, !tbaa !7
  %21 = load ptr, ptr %8, align 8, !tbaa !7
  %22 = load ptr, ptr %9, align 8, !tbaa !14
  %23 = load ptr, ptr %10, align 8, !tbaa !29
  %24 = call i32 @mpd_qcheck_nans(ptr noundef %19, ptr noundef %20, ptr noundef %21, ptr noundef %22, ptr noundef %23)
  %25 = icmp ne i32 %24, 0
  br i1 %25, label %26, label %27

26:                                               ; preds = %18
  br label %45

27:                                               ; preds = %18
  %28 = load ptr, ptr %6, align 8, !tbaa !7
  %29 = load ptr, ptr %7, align 8, !tbaa !7
  %30 = load ptr, ptr %8, align 8, !tbaa !7
  %31 = load ptr, ptr %8, align 8, !tbaa !7
  %32 = call zeroext i8 @mpd_sign(ptr noundef %31)
  %33 = load ptr, ptr %10, align 8, !tbaa !29
  call void @_mpd_qaddsub_inf(ptr noundef %28, ptr noundef %29, ptr noundef %30, i8 noundef zeroext %32, ptr noundef %33)
  br label %45

34:                                               ; preds = %14
  %35 = load ptr, ptr %6, align 8, !tbaa !7
  %36 = load ptr, ptr %7, align 8, !tbaa !7
  %37 = load ptr, ptr %8, align 8, !tbaa !7
  %38 = load ptr, ptr %8, align 8, !tbaa !7
  %39 = call zeroext i8 @mpd_sign(ptr noundef %38)
  %40 = load ptr, ptr %9, align 8, !tbaa !14
  %41 = load ptr, ptr %10, align 8, !tbaa !29
  call void @_mpd_qaddsub(ptr noundef %35, ptr noundef %36, ptr noundef %37, i8 noundef zeroext %39, ptr noundef %40, ptr noundef %41)
  %42 = load ptr, ptr %6, align 8, !tbaa !7
  %43 = load ptr, ptr %9, align 8, !tbaa !14
  %44 = load ptr, ptr %10, align 8, !tbaa !29
  call void @mpd_qfinalize(ptr noundef %42, ptr noundef %43, ptr noundef %44)
  br label %45

45:                                               ; preds = %34, %27, %26
  ret void
}