; Function Attrs: nounwind uwtable
define hidden void @mpd_qadd(ptr noundef %0, ptr noundef %1, ptr noundef %2, ptr noundef readonly captures(none) %3, ptr noundef %4) local_unnamed_addr #10 {
  %6 = load i8, ptr %1, align 8, !tbaa !19
  %7 = and i8 %6, 14
  %.not = icmp eq i8 %7, 0
  br i1 %.not, label %8, label %11

8:                                                ; preds = %5
  %9 = load i8, ptr %2, align 8, !tbaa !19
  %10 = and i8 %9, 14
  %.not21 = icmp eq i8 %10, 0
  br i1 %.not21, label %16, label %11

11:                                               ; preds = %8, %5
  %12 = tail call i32 @mpd_qcheck_nans(ptr noundef %0, ptr noundef nonnull %1, ptr noundef %2, ptr noundef %3, ptr noundef %4)
  %.not22 = icmp eq i32 %12, 0
  br i1 %.not22, label %13, label %18

13:                                               ; preds = %11
  %14 = load i8, ptr %2, align 8, !tbaa !19
  %15 = and i8 %14, 1
  %.val = load i8, ptr %1, align 8, !tbaa !19
  tail call fastcc void @_mpd_qaddsub_inf(ptr noundef %0, i8 %.val, ptr noundef nonnull %2, i8 noundef zeroext %15, ptr noundef %4)
  br label %18

16:                                               ; preds = %8
  %17 = and i8 %9, 1
  tail call fastcc void @_mpd_qaddsub(ptr noundef %0, ptr noundef nonnull %1, ptr noundef nonnull %2, i8 noundef zeroext %17, ptr noundef %3, ptr noundef %4)
  tail call void @mpd_qfinalize(ptr noundef %0, ptr noundef %3, ptr noundef %4)
  br label %18

18:                                               ; preds = %11, %16, %13
  ret void
}